; Function Attrs: mustprogress nofree norecurse nosync nounwind willreturn memory(argmem: write) uwtable
define void @Amap_ManSetDefaultParams(ptr noundef writeonly captures(none) initializes((0, 36)) %0) local_unnamed_addr #0 {
  %2 = getelementptr inbounds nuw i8, ptr %0, i64 28
  store i32 0, ptr %2, align 4
  store i32 1, ptr %0, align 4, !tbaa !3
  %3 = getelementptr inbounds nuw i8, ptr %0, i64 4
  store i32 4, ptr %3, align 4, !tbaa !9
  %4 = getelementptr inbounds nuw i8, ptr %0, i64 8
  store i32 500, ptr %4, align 4, !tbaa !10
  %5 = getelementptr inbounds nuw i8, ptr %0, i64 12
  store i32 0, ptr %5, align 4, !tbaa !11
  %6 = getelementptr inbounds nuw i8, ptr %0, i64 16
  store i32 1, ptr %6, align 4, !tbaa !12
  %7 = getelementptr inbounds nuw i8, ptr %0, i64 20
  store i32 0, ptr %7, align 4, !tbaa !13
  %8 = getelementptr inbounds nuw i8, ptr %0, i64 24
  store float 0x3F50624DE0000000, ptr %8, align 4, !tbaa !14
  %9 = getelementptr inbounds nuw i8, ptr %0, i64 32
  store i32 0, ptr %9, align 4, !tbaa !15
  ret void
}